; Function Attrs: mustprogress uwtable
define hidden noundef nonnull ptr @_ZNK3ue217ComponentBoundary5cloneEv(ptr noundef nonnull readonly align 8 captures(none) dereferenceable(72) %0) unnamed_addr #0 align 2 personality ptr @__gxx_personality_v0 {
  %2 = tail call noalias noundef nonnull dereferenceable(72) ptr @_Znwm(i64 noundef 72) #17
  invoke void @_ZN3ue217ComponentBoundaryC2ERKS0_(ptr noundef nonnull align 8 dereferenceable(72) %2, ptr noundef nonnull align 8 dereferenceable(72) %0)
          to label %3 unwind label %4

3:                                                ; preds = %1
  ret ptr %2

4:                                                ; preds = %1
  %5 = landingpad { ptr, i32 }
          cleanup
  tail call void @_ZdlPv(ptr noundef nonnull %2) #14
  resume { ptr, i32 } %5
}